; Function Attrs: mustprogress nounwind uwtable
define hidden noundef ptr @_ZNK12BarrierSetC221atomic_cmpxchg_val_atER19C2AtomicParseAccessP4NodeS3_PK4Type(ptr noundef nonnull align 8 dereferenceable(8) %0, ptr noundef nonnull align 8 dereferenceable(76) %1, ptr noundef %2, ptr noundef %3, ptr noundef %4) unnamed_addr #2 align 2 {
  %6 = alloca %class.C2AccessFence, align 8
  call void @_ZN13C2AccessFenceC2ER8C2Access(ptr noundef nonnull align 8 dereferenceable(16) %6, ptr noundef nonnull align 8 dereferenceable(49) %1)
  %7 = load ptr, ptr %0, align 8
  %8 = load ptr, ptr %7, align 8
  call void %8(ptr noundef nonnull align 8 dereferenceable(8) %0, ptr noundef nonnull align 8 dereferenceable(49) %1) #14
  %9 = load ptr, ptr %0, align 8
  %10 = getelementptr inbounds i8, ptr %9, i64 24
  %11 = load ptr, ptr %10, align 8
  %12 = call noundef ptr %11(ptr noundef nonnull align 8 dereferenceable(8) %0, ptr noundef nonnull align 8 dereferenceable(76) %1, ptr noundef %2, ptr noundef %3, ptr noundef %4) #14
  call void @_ZN13C2AccessFenceD2Ev(ptr noundef nonnull align 8 dereferenceable(16) %6) #14
  ret ptr %12
}